MPASM 5.64        RECIBE_UART_PIC18F4620.ASM   11-17-2015  17:18:08         PAGE  1


LOC  OBJECT CODE     LINE SOURCE TEXT
  VALUE

                      00001 #include "p18f4620.inc"
                      00001         LIST
                      00002 
                      00003 ;==========================================================================
                      00004 ; Build date : Oct 21 2015
                      00005 ;  MPASM PIC18F4620 processor include
                      00006 ; 
                      00007 ;  (c) Copyright 1999-2015 Microchip Technology, All rights reserved
                      00008 ;==========================================================================
                      00009 
                      01440         LIST
                      00002 
                      00003     ; Configuraciones
                      00004     CONFIG OSC = XT
                      00005     CONFIG BOREN = ON
                      00006     CONFIG WDT = OFF
                      00007     
                      00008     cblock 0x20
  00000020            00009         centenas
  00000021            00010         decenas
  00000022            00011         unidades
  00000023            00012         delay1
  00000024            00013         delay2
                      00014     endc
                      00015     
                      00016     org 0x00
                      00017     
000000 EF?? F???      00018     goto Inicio
                      00019     
                      00020     org 0x08
                      00021     
000008 EF?? F???      00022     goto ISR
                      00023     
00000C                00024 Inicio:
                      00025     ; ISR
00000C 0EC0           00026     movlw b'11000000'
00000E 6EF2           00027     movwf INTCON
000010 0E20           00028     movlw b'00100000'
000012 6E9D           00029     movwf PIE1
                      00030     
                      00031     ; Inicializar los registros para la velocidad adecuada (1200 baudios)
                      00032     ; **** ME FALTA VER EL ERROR DEL PIC12F ASI COMPARO PARA CARGAR ESTE VALOR
                      00033 
000014 0ECF           00034     movlw d'207'                    ; Valor para 1200 baudios con un clock de 4 Mhz (207)
000016 6EAF           00035     movwf SPBRG                     ; 
000018 98AC           00036     bcf TXSTA,SYNC
00001A 84AC           00037     bsf TXSTA,BRGH
00001C 96B8           00038     bcf BAUDCON,BRG16           ; bcf       
                      00039     ; Habilito el puerto serie
00001E 8EAB           00040     bsf RCSTA,SPEN
                      00041     ; Habilitar recepcion
000020 88AB           00042     bsf RCSTA,CREN
                      00043     
MPASM 5.64        RECIBE_UART_PIC18F4620.ASM   11-17-2015  17:18:08         PAGE  2


LOC  OBJECT CODE     LINE SOURCE TEXT
  VALUE

                      00044     
000022 6A81           00045     clrf PORTB
000024 6A93           00046     clrf TRISB
                      00047     
000026 EC?? F???      00048     call LCD_Inicializa
00002A EC?? F???      00049     call Escribir_Presion
                      00050 
                      00051   
                      00052     
00002E                00053 Principal:
                      00054     ;call Escribir_Presion
00002E EC?? F???      00055     call bin_to_bcd
000032 C020 FFE8      00056     movff centenas,WREG
000036 0F30           00057     addlw 30h
000038 EC?? F???      00058     call LCD_Caracter
00003C C021 FFE8      00059     movff decenas,WREG
000040 0F30           00060     addlw 30h
000042 EC?? F???      00061     call LCD_Caracter
000046 C022 FFE8      00062     movff unidades,WREG
00004A 0F30           00063     addlw 30h
00004C EC?? F???      00064     call LCD_Caracter
                      00065  
                      00066     ; Se mantiene al final de la palabra 'Presion(Kpa):'
                      00067     ; De esta manera solo se actualiza el valor de la presion
000050 0E8D           00068     movlw b'10001101'
000052 EC?? F???      00069     call LCD_Comando
000056 EC?? F???      00070     call Delay
                      00071     
00005A EF?? F???      00072     goto Principal
                      00073     
00005E                00074 ISR:
00005E CFAE FFE8      00075     movff RCREG,WREG
000062 9A9E           00076     bcf PIR1,RCIF
000064 0010           00077     retfie
                      00078     
000066                00079 bin_to_bcd:
000066 6A21           00080     clrf decenas
000068 6A20           00081     clrf centenas
00006A 6E22           00082     movwf unidades
                      00083     
00006C                00084 resta10:
00006C 0E0A           00085     movlw d'10'
00006E 5C22           00086     subwf unidades,0
000070 A0D8           00087     btfss STATUS,C
000072 EF?? F???      00088     goto fin_bcd
                      00089     
000076                00090 inc_decenas:
000076 6E22           00091     movwf unidades
000078 2A21           00092     incf decenas
00007A 0E0A           00093     movlw d'10'
00007C 5C21           00094     subwf decenas,0
00007E A0D8           00095     btfss STATUS,C
000080 EF?? F???      00096     goto resta10
MPASM 5.64        RECIBE_UART_PIC18F4620.ASM   11-17-2015  17:18:08         PAGE  3


LOC  OBJECT CODE     LINE SOURCE TEXT
  VALUE

                      00097     
000084                00098 inc_centenas:
000084 6A21           00099     clrf decenas
000086 2A20           00100     incf centenas
000088 EF?? F???      00101     goto resta10
                      00102     
00008C                00103 fin_bcd:
00008C 3821           00104     swapf decenas,0
00008E 2422           00105     addwf unidades,0
000090 0012           00106     return    
                      00107     
                      00108     #include <LCD8_LIB.inc>
                      00001 ; LIBRERIA PARA MANEJO DEL LCD LM016L
                      00002  
                      00003 #define LCD_RS PORTD,0
                      00004 #define LCD_RW PORTD,1
                      00005 #define LCD_E PORTD,2
                      00006     
  00000080            00007 LCDLinea1 equ 80h           ; Direccion comienzo linea 1
  000000C0            00008 LCDLinea2 equ 0C0h          ; Direccion comienzo linea 2
  0000000E            00009 CursorOn equ 0eh            ; Pantalla On, Cursor On            
  0000000C            00010 CursorOff equ 0ch           ; Pantalla On, Cursor Off
  0000000F            00011 CursorBlink equ 0fh         ; Pantalla On, Cursor parpadeo
  00000004            00012 LCDDec equ 04h              ; Decrementar cursor
                      00013  
000092                00014 LCD_Inicializa:
000092 6A81           00015     clrf PORTB
000094 6A83           00016     clrf PORTD
                      00017  
000096 6A93           00018     clrf TRISB
000098 6A95           00019     clrf TRISD
                      00020     
00009A EC?? F???      00021    call   Retardo_20ms ;Esperar 20 ms
00009E 0E30           00022    movlw  b'00110000' ;Mandar 0x30 -> W
0000A0 6E81           00023    movwf  PORTB ;Enviar W -> PORTB
                      00024  
0000A2 EC?? F???      00025    call   Retardo_5ms ;Esperar 5ms
0000A6 0E30           00026    movlw  b'00110000' ;Enviar 0x30 -> W
0000A8 6E81           00027    movwf  PORTB
                      00028  
0000AA EC?? F???      00029    call   Retardo_50us ;Acumular 100us
0000AE EC?? F???      00030    call   Retardo_50us ;Acumular 100us
0000B2 0E30           00031    movlw  b'00110000'
0000B4 6E81           00032    movwf  PORTB
                      00033  
0000B6 0E0F           00034    movlw  0x0F
0000B8 6E81           00035    movwf  PORTB
                      00036  
0000BA 8483           00037    bsf    LCD_E
0000BC 9483           00038    bcf    LCD_E
0000BE 0012           00039    return
                      00040  
0000C0                00041 LCD_Caracter:
MPASM 5.64        RECIBE_UART_PIC18F4620.ASM   11-17-2015  17:18:08         PAGE  4


LOC  OBJECT CODE     LINE SOURCE TEXT
  VALUE

0000C0 8083           00042    bsf    LCD_RS ;Modo Caracter RS = 1
0000C2 6E81           00043    movwf  PORTB ;Lo que se cargó previamente en W -> PORTB
0000C4 8483           00044    bsf    LCD_E ;Activar Enable
0000C6 EC?? F???      00045    call   Retardo_50us ;Esperar 50us para enviar información
0000CA 9483           00046    bcf    LCD_E ;Transición del Enable a 0
0000CC EC?? F???      00047    call   Delay ;Esperar a poner la siguiente llamada
0000D0 0012           00048    return
                      00049  
0000D2                00050 LCD_Borrar:
0000D2 0E01           00051    movlw  b'00000001' ;Comando para Borrar
0000D4 EC?? F???      00052    call   LCD_Comando ;Enviar un comando
0000D8 0012           00053    return
                      00054  
0000DA                00055 LCD_Comando:
0000DA 9083           00056    bcf    LCD_RS ;Modo Comando RS = 0
0000DC 6E81           00057    movwf  PORTB ;Envia W -> PORTB
0000DE 8483           00058    bsf    LCD_E ;Activa Enable
0000E0 EC?? F???      00059    call   Retardo_50us ;Espera que se envie la información
0000E4 9483           00060    bcf    LCD_E ;Transición del Enable
0000E6 0012           00061    return
                      00062    
0000E8                00063 LCD_Decrementar:
0000E8 0E04           00064     movlw LCDDec
0000EA EC?? F???      00065     call LCD_Comando
0000EE 0012           00066     return
                      00067     
0000F0                00068 LCD_Decrementarx3:
0000F0 0E04           00069     movlw LCDDec
0000F2 EC?? F???      00070     call LCD_Comando
0000F6 0E04           00071     movlw LCDDec
0000F8 EC?? F???      00072     call LCD_Comando
0000FC 0E04           00073     movlw LCDDec
0000FE EC?? F???      00074     call LCD_Comando
000102 0012           00075     return
                      00076     
000104                00077 LCD_ApagarCursor:
000104 0E0C           00078     movlw CursorOff
000106 EC?? F???      00079     call LCD_Comando
                      00080    
00010A                00081 Escribir_Presion:
00010A 0E50           00082     movlw  'P'
00010C EC?? F???      00083     call   LCD_Caracter
000110 0E72           00084     movlw  'r'
000112 EC?? F???      00085     call   LCD_Caracter
000116 0E65           00086     movlw  'e'
000118 EC?? F???      00087     call   LCD_Caracter
00011C 0E73           00088     movlw  's'
00011E EC?? F???      00089     call   LCD_Caracter
000122 0E69           00090     movlw  'i'
000124 EC?? F???      00091     call   LCD_Caracter
000128 0E6F           00092     movlw  'o'
00012A EC?? F???      00093     call   LCD_Caracter
00012E 0E6E           00094     movlw  'n'
MPASM 5.64        RECIBE_UART_PIC18F4620.ASM   11-17-2015  17:18:08         PAGE  5


LOC  OBJECT CODE     LINE SOURCE TEXT
  VALUE

000130 EC?? F???      00095     call   LCD_Caracter
000134 0E28           00096     movlw  '('
000136 EC?? F???      00097     call   LCD_Caracter
00013A 0E4B           00098     movlw  'K'
00013C EC?? F???      00099     call   LCD_Caracter
000140 0E70           00100     movlw  'p'
000142 EC?? F???      00101     call   LCD_Caracter
000146 0E61           00102     movlw  'a'
000148 EC?? F???      00103     call   LCD_Caracter
00014C 0E29           00104     movlw  ')'
00014E EC?? F???      00105     call   LCD_Caracter
000152 0E3A           00106     movlw  ':'
000154 EC?? F???      00107     call   LCD_Caracter
000158 0012           00108     return
                      00109  
                      00110 
                      00111 
                      00112 
                      00113 
                      00114 
                      00115 
                      00116 
                      00117 
                      00118 
                      00109     #include <RETARDOS.inc>
                      00001 
                      00002 
                      00003 
                      00004     CBLOCK
  00000025            00005         Conta1
  00000026            00006         Conta2
  00000027            00007         Conta3
                      00008     ENDC
                      00009 ;Retardo_20ms *********************
00015A                00010 Retardo_20ms
00015A 0EF7           00011     movlw  .247
00015C 6E25           00012     movwf  Conta1
00015E 0E1A           00013     movlw  .26
000160 6E26           00014     movwf  Conta2
000162                00015 Re_20ms
000162 2E25           00016     decfsz Conta1, F  ;Salta cuando Conta1 llega a 0
000164 D???           00017     bra    Re_20ms    ;Salta a Repeat para Decrementar Conta1
000166 2E26           00018     decfsz Conta2, F  ;Salta cuando Conta2 llega a 0
000168 D???           00019     bra    Re_20ms    ;Salta a Repeat
00016A 0012           00020     Return
                      00021  
                      00022 ;Retardo_5ms *********************
00016C                00023 Retardo_5ms
00016C 0E92           00024     movlw  .146
00016E 6E25           00025     movwf  Conta1
000170 0E07           00026     movlw  .7
000172 6E26           00027     movwf  Conta2
000174                00028 Re_5ms
MPASM 5.64        RECIBE_UART_PIC18F4620.ASM   11-17-2015  17:18:08         PAGE  6


LOC  OBJECT CODE     LINE SOURCE TEXT
  VALUE

000174 2E25           00029     decfsz Conta1, F ;Salta cuando Conta1 llega a 0
000176 D???           00030     bra    Re_5ms    ;Salta a Repeat para Decrementar Conta1
000178 2E26           00031     decfsz Conta2, F ;Salta cuando Conta2 llega a 0
00017A D???           00032     bra    Re_5ms    ;Salta a Repeat
00017C 0012           00033     Return
                      00034  
                      00035 ;Retardo_200us *********************
00017E                00036 Retardo_200us
00017E 0E41           00037     movlw  .65
000180 6E25           00038     movwf  Conta1
000182                00039 Re_200us
000182 2E25           00040     decfsz  Conta1, F ;Salta cuando Conta1 llega a 0
000184 D???           00041     bra     Re_200us  ;Salta a Repeat para Decrementar Conta1
000186 0012           00042     Return
                      00043  
                      00044 ;Retardo_2ms *********************
000188                00045 Retardo_2ms
000188 0E97           00046     movlw  .151
00018A 6E25           00047     movwf  Conta1
00018C 0E03           00048     movlw  .3
00018E 6E26           00049     movwf  Conta2
000190                00050 Re_2ms
000190 2E25           00051     decfsz  Conta1, F ;Salta cuando Conta1 llega a 0
000192 D???           00052     bra     Re_2ms    ;Salta a Repeat para Decrementar Conta1
000194 2E26           00053     decfsz  Conta2, F ;Salta cuando Conta2 llega a 0
000196 D???           00054     bra     Re_2ms    ;Salta a Repeat
000198 0012           00055     Return
                      00056  
                      00057 ;Retardo_50us *********************
00019A                00058 Retardo_50us
00019A 0E0F           00059     movlw  .15
00019C 6E25           00060     movwf  Conta1
00019E                00061 Re_50us
00019E 2E25           00062     decfsz Conta1, F ;Salta cuando Conta1 llega a 0
0001A0 D???           00063     bra    Re_50us   ;Salta a Repeat para Decrementar Conta1
0001A2 0012           00064     Return
                      00065  
0001A4                00066 Delay
0001A4 6A25           00067     clrf   Conta1
0001A6 6A26           00068     clrf   Conta2
0001A8 0E03           00069     movlw  .3
0001AA 6E27           00070     movwf  Conta3
0001AC                00071 Re_Delay
0001AC 2E25           00072     decfsz Conta1, F ;Salta cuando Conta1 llega a 0
0001AE D???           00073     bra    Re_Delay  ;Salta a Repeat para Decrementar Conta1
                      00074  
0001B0 2E26           00075     decfsz Conta2, F ;Salta cuando Conta2 llega a 0
0001B2 D???           00076     bra    Re_Delay  ;Salta a Repeat
                      00077  
0001B4 2E27           00078     decfsz Conta3, F
0001B6 D???           00079     bra    Re_Delay
                      00080  
0001B8 0012           00081     Return
MPASM 5.64        RECIBE_UART_PIC18F4620.ASM   11-17-2015  17:18:08         PAGE  7


LOC  OBJECT CODE     LINE SOURCE TEXT
  VALUE

                      00110     end
MPASM 5.64        RECIBE_UART_PIC18F4620.ASM   11-17-2015  17:18:08         PAGE  8


SYMBOL TABLE
  LABEL                             VALUE 

A                                 00000000
ABDEN                             00000000
ABDOVF                            00000007
ACCESS                            00000000
ACKDT                             00000005
ACKEN                             00000004
ACKSTAT                           00000006
ACQT0                             00000003
ACQT1                             00000004
ACQT2                             00000005
ADCON0                            00000FC2
ADCON1                            00000FC1
ADCON2                            00000FC0
ADCS0                             00000000
ADCS1                             00000001
ADCS2                             00000002
ADDEN                             00000003
ADEN                              00000003
ADFM                              00000007
ADIE                              00000006
ADIF                              00000006
ADIP                              00000006
ADON                              00000000
ADRES                             00000FC3
ADRESH                            00000FC4
ADRESL                            00000FC3
AN10                              00000001
AN11                              00000004
AN12                              00000000
AN4                               00000005
AN5                               00000000
AN6                               00000001
AN7                               00000002
AN8                               00000002
AN9                               00000003
BANKED                            00000001
BAUDCON                           00000FB8
BAUDCTL                           00000FB8
BCLIE                             00000003
BCLIF                             00000003
BCLIP                             00000003
BF                                00000000
BGST                              00000005
BOR                               00000000
BRG16                             00000003
BRGH                              00000002
BSR                               00000FE0
C                                 00000000
C1INV                             00000004
C1OUT                             00000006
C2INV                             00000005
C2OUT                             00000007
CCP1                              00000002
MPASM 5.64        RECIBE_UART_PIC18F4620.ASM   11-17-2015  17:18:08         PAGE  9


SYMBOL TABLE
  LABEL                             VALUE 

CCP1CON                           00000FBD
CCP1IE                            00000002
CCP1IF                            00000002
CCP1IP                            00000002
CCP1M0                            00000000
CCP1M1                            00000001
CCP1M2                            00000002
CCP1M3                            00000003
CCP1X                             00000005
CCP1Y                             00000004
CCP2CON                           00000FBA
CCP2IE                            00000000
CCP2IF                            00000000
CCP2IP                            00000000
CCP2M0                            00000000
CCP2M1                            00000001
CCP2M2                            00000002
CCP2M3                            00000003
CCP2X                             00000005
CCP2Y                             00000004
CCP2_PORTB                        00000003
CCP2_PORTC                        00000001
CCPR1                             00000FBE
CCPR1H                            00000FBF
CCPR1L                            00000FBE
CCPR2                             00000FBB
CCPR2H                            00000FBC
CCPR2L                            00000FBB
CFGS                              00000006
CHS0                              00000002
CHS1                              00000003
CHS2                              00000004
CHS3                              00000005
CIS                               00000003
CK                                00000006
CKE                               00000006
CKP                               00000004
CM0                               00000000
CM1                               00000001
CM2                               00000002
CMCON                             00000FB4
CMIE                              00000006
CMIF                              00000006
CMIP                              00000006
CREN                              00000004
CS                                00000002
CSRC                              00000007
CVR0                              00000000
CVR1                              00000001
CVR2                              00000002
CVR3                              00000003
CVRCON                            00000FB5
CVREN                             00000007
MPASM 5.64        RECIBE_UART_PIC18F4620.ASM   11-17-2015  17:18:08         PAGE 10


SYMBOL TABLE
  LABEL                             VALUE 

CVROE                             00000006
CVRR                              00000005
CVRSS                             00000004
Conta1                            00000025
Conta2                            00000026
Conta3                            00000027
CursorBlink                       0000000F
CursorOff                         0000000C
CursorOn                          0000000E
D                                 00000005
DC                                00000001
DC1B0                             00000004
DC1B1                             00000005
DC2B0                             00000004
DC2B1                             00000005
DDRA                              TRISA
DDRB                              TRISB
DDRC                              TRISC
DDRD                              TRISD
DDRE                              TRISE
DONE                              00000001
D_A                               00000005
D_NOT_A                           00000005
Delay                             000001A4
ECCP1AS                           00000FB6
ECCPAS0                           00000004
ECCPAS1                           00000005
ECCPAS2                           00000006
ECCPASE                           00000007
EEADR                             00000FA9
EEADRH                            00000FAA
EECON1                            00000FA6
EECON2                            00000FA7
EEDATA                            00000FA8
EEIE                              00000004
EEIF                              00000004
EEIP                              00000004
EEPGD                             00000007
Escribir_Presion                  0000010A
FAST                              00000001
FERR                              00000002
FREE                              00000004
FSR0                              00000000
FSR0H                             00000FEA
FSR0L                             00000FE9
FSR1                              00000001
FSR1H                             00000FE2
FSR1L                             00000FE1
FSR2                              00000002
FSR2H                             00000FDA
FSR2L                             00000FD9
GCEN                              00000007
GIE                               00000007
MPASM 5.64        RECIBE_UART_PIC18F4620.ASM   11-17-2015  17:18:08         PAGE 11


SYMBOL TABLE
  LABEL                             VALUE 

GIEH                              00000007
GIEL                              00000006
GIE_GIEH                          00000007
GO                                00000001
GO_DONE                           00000001
GO_NOT_DONE                       00000001
HLVDCON                           00000FD2
HLVDEN                            00000004
HLVDIE                            00000002
HLVDIF                            00000002
HLVDIN                            00000005
HLVDIP                            00000002
HLVDL0                            00000000
HLVDL1                            00000001
HLVDL2                            00000002
HLVDL3                            00000003
IBF                               00000007
IBOV                              00000005
IDLEN                             00000007
INDF0                             00000FEF
INDF1                             00000FE7
INDF2                             00000FDF
INT0                              00000000
INT0E                             00000004
INT0F                             00000001
INT0IE                            00000004
INT0IF                            00000001
INT1                              00000001
INT1E                             00000003
INT1F                             00000000
INT1IE                            00000003
INT1IF                            00000000
INT1IP                            00000006
INT1P                             00000006
INT2                              00000002
INT2E                             00000004
INT2F                             00000001
INT2IE                            00000004
INT2IF                            00000001
INT2IP                            00000007
INT2P                             00000007
INTCON                            00000FF2
INTCON2                           00000FF1
INTCON3                           00000FF0
INTEDG0                           00000006
INTEDG1                           00000005
INTEDG2                           00000004
INTSRC                            00000007
IOFS                              00000002
IPEN                              00000007
IPR1                              00000F9F
IPR2                              00000FA2
IRCF0                             00000004
MPASM 5.64        RECIBE_UART_PIC18F4620.ASM   11-17-2015  17:18:08         PAGE 12


SYMBOL TABLE
  LABEL                             VALUE 

IRCF1                             00000005
IRCF2                             00000006
IRVST                             00000005
ISR                               0000005E
IVRST                             00000005
Inicio                            0000000C
KBI0                              00000004
KBI1                              00000005
KBI2                              00000006
KBI3                              00000007
LATA                              00000F89
LATA0                             00000000
LATA1                             00000001
LATA2                             00000002
LATA3                             00000003
LATA4                             00000004
LATA5                             00000005
LATA6                             00000006
LATA7                             00000007
LATB                              00000F8A
LATB0                             00000000
LATB1                             00000001
LATB2                             00000002
LATB3                             00000003
LATB4                             00000004
LATB5                             00000005
LATB6                             00000006
LATB7                             00000007
LATC                              00000F8B
LATC0                             00000000
LATC1                             00000001
LATC2                             00000002
LATC3                             00000003
LATC4                             00000004
LATC5                             00000005
LATC6                             00000006
LATC7                             00000007
LATD                              00000F8C
LATD0                             00000000
LATD1                             00000001
LATD2                             00000002
LATD3                             00000003
LATD4                             00000004
LATD5                             00000005
LATD6                             00000006
LATD7                             00000007
LATE                              00000F8D
LATE0                             00000000
LATE1                             00000001
LATE2                             00000002
LCDDec                            00000004
LCDLinea1                         00000080
LCDLinea2                         000000C0
MPASM 5.64        RECIBE_UART_PIC18F4620.ASM   11-17-2015  17:18:08         PAGE 13


SYMBOL TABLE
  LABEL                             VALUE 

LCD_ApagarCursor                  00000104
LCD_Borrar                        000000D2
LCD_Caracter                      000000C0
LCD_Comando                       000000DA
LCD_Decrementar                   000000E8
LCD_Decrementarx3                 000000F0
LCD_E                             PORTD,2
LCD_Inicializa                    00000092
LCD_RS                            PORTD,0
LCD_RW                            PORTD,1
LVDCON                            00000FD2
LVDEN                             00000004
LVDIE                             00000002
LVDIF                             00000002
LVDIN                             00000005
LVDIP                             00000002
LVDL0                             00000000
LVDL1                             00000001
LVDL2                             00000002
LVDL3                             00000003
LVV0                              00000000
LVV1                              00000001
LVV2                              00000002
LVV3                              00000003
MCLR                              00000003
N                                 00000004
NOT_A                             00000005
NOT_ADDRESS                       00000005
NOT_BOR                           00000000
NOT_CS                            00000002
NOT_DONE                          00000001
NOT_MCLR                          00000003
NOT_PD                            00000002
NOT_POR                           00000001
NOT_RBPU                          00000007
NOT_RD                            00000000
NOT_RI                            00000004
NOT_SS                            00000005
NOT_T1SYNC                        00000002
NOT_T3SYNC                        00000002
NOT_TO                            00000003
NOT_W                             00000002
NOT_WR                            00000001
NOT_WRITE                         00000002
OBF                               00000006
OERR                              00000001
OSCCON                            00000FD3
OSCFIE                            00000007
OSCFIF                            00000007
OSCFIP                            00000007
OSCTUNE                           00000F9B
OSTS                              00000003
OV                                00000003
MPASM 5.64        RECIBE_UART_PIC18F4620.ASM   11-17-2015  17:18:08         PAGE 14


SYMBOL TABLE
  LABEL                             VALUE 

P                                 00000004
P1B                               00000005
P1C                               00000006
P1D                               00000007
P1M0                              00000006
P1M1                              00000007
PC                                00000FF9
PCFG0                             00000000
PCFG1                             00000001
PCFG2                             00000002
PCFG3                             00000003
PCL                               00000FF9
PCLATH                            00000FFA
PCLATU                            00000FFB
PD                                00000002
PDC0                              00000000
PDC1                              00000001
PDC2                              00000002
PDC3                              00000003
PDC4                              00000004
PDC5                              00000005
PDC6                              00000006
PEIE                              00000006
PEIE_GIEL                         00000006
PEN                               00000002
PGC                               00000006
PGD                               00000007
PGM                               00000005
PIE1                              00000F9D
PIE2                              00000FA0
PIR1                              00000F9E
PIR2                              00000FA1
PLLEN                             00000006
PLUSW0                            00000FEB
PLUSW1                            00000FE3
PLUSW2                            00000FDB
POR                               00000001
PORTA                             00000F80
PORTB                             00000F81
PORTC                             00000F82
PORTD                             00000F83
PORTE                             00000F84
POSTDEC0                          00000FED
POSTDEC1                          00000FE5
POSTDEC2                          00000FDD
POSTINC0                          00000FEE
POSTINC1                          00000FE6
POSTINC2                          00000FDE
PR2                               00000FCB
PREINC0                           00000FEC
PREINC1                           00000FE4
PREINC2                           00000FDC
PROD                              00000FF3
MPASM 5.64        RECIBE_UART_PIC18F4620.ASM   11-17-2015  17:18:08         PAGE 15


SYMBOL TABLE
  LABEL                             VALUE 

PRODH                             00000FF4
PRODL                             00000FF3
PRSEN                             00000007
PSA                               00000003
PSP0                              00000000
PSP1                              00000001
PSP2                              00000002
PSP3                              00000003
PSP4                              00000004
PSP5                              00000005
PSP6                              00000006
PSP7                              00000007
PSPIE                             00000007
PSPIF                             00000007
PSPIP                             00000007
PSPMODE                           00000004
PSSAC0                            00000002
PSSAC1                            00000003
PSSBD0                            00000000
PSSBD1                            00000001
PWM1CON                           00000FB7
Principal                         0000002E
R                                 00000002
RA0                               00000000
RA1                               00000001
RA2                               00000002
RA3                               00000003
RA4                               00000004
RA5                               00000005
RA6                               00000006
RA7                               00000007
RB0                               00000000
RB1                               00000001
RB2                               00000002
RB3                               00000003
RB4                               00000004
RB5                               00000005
RB6                               00000006
RB7                               00000007
RBIE                              00000003
RBIF                              00000000
RBIP                              00000000
RBPU                              00000007
RC0                               00000000
RC1                               00000001
RC2                               00000002
RC3                               00000003
RC4                               00000004
RC5                               00000005
RC6                               00000006
RC7                               00000007
RCEN                              00000003
RCIDL                             00000006
MPASM 5.64        RECIBE_UART_PIC18F4620.ASM   11-17-2015  17:18:08         PAGE 16


SYMBOL TABLE
  LABEL                             VALUE 

RCIE                              00000005
RCIF                              00000005
RCIP                              00000005
RCMT                              00000006
RCON                              00000FD0
RCREG                             00000FAE
RCSTA                             00000FAB
RD                                00000000
RD0                               00000000
RD1                               00000001
RD16                              00000007
RD2                               00000002
RD3                               00000003
RD4                               00000004
RD5                               00000005
RD6                               00000006
RD7                               00000007
RE0                               00000000
RE1                               00000001
RE2                               00000002
RE3                               00000003
RI                                00000004
RSEN                              00000001
RX                                00000007
RX9                               00000006
RX9D                              00000000
RXCKP                             00000005
RXDTP                             00000005
R_NOT_W                           00000002
R_W                               00000002
Re_200us                          00000182
Re_20ms                           00000162
Re_2ms                            00000190
Re_50us                           0000019E
Re_5ms                            00000174
Re_Delay                          000001AC
Retardo_200us                     0000017E
Retardo_20ms                      0000015A
Retardo_2ms                       00000188
Retardo_50us                      0000019A
Retardo_5ms                       0000016C
S                                 00000003
SBOREN                            00000006
SCK                               00000003
SCKP                              00000004
SCL                               00000003
SCS0                              00000000
SCS1                              00000001
SDA                               00000004
SDI                               00000004
SDO                               00000005
SEN                               00000000
SENDB                             00000003
MPASM 5.64        RECIBE_UART_PIC18F4620.ASM   11-17-2015  17:18:08         PAGE 17


SYMBOL TABLE
  LABEL                             VALUE 

SMP                               00000007
SP0                               00000000
SP1                               00000001
SP2                               00000002
SP3                               00000003
SP4                               00000004
SPBRG                             00000FAF
SPBRGH                            00000FB0
SPEN                              00000007
SREN                              00000005
SS                                00000005
SSPADD                            00000FC8
SSPBUF                            00000FC9
SSPCON1                           00000FC6
SSPCON2                           00000FC5
SSPEN                             00000005
SSPIE                             00000003
SSPIF                             00000003
SSPIP                             00000003
SSPM0                             00000000
SSPM1                             00000001
SSPM2                             00000002
SSPM3                             00000003
SSPOV                             00000006
SSPSTAT                           00000FC7
STATUS                            00000FD8
STKFUL                            00000007
STKOVF                            00000007
STKPTR                            00000FFC
STKPTR0                           00000000
STKPTR1                           00000001
STKPTR2                           00000002
STKPTR3                           00000003
STKPTR4                           00000004
STKUNF                            00000006
SWDTE                             00000000
SWDTEN                            00000000
SYNC                              00000004
T016BIT                           00000006
T08BIT                            00000006
T0CKI                             00000004
T0CON                             00000FD5
T0CS                              00000005
T0IE                              00000005
T0IF                              00000002
T0PS0                             00000000
T0PS1                             00000001
T0PS2                             00000002
T0SE                              00000004
T13CKI                            00000000
T1CKI                             00000000
T1CKPS0                           00000004
T1CKPS1                           00000005
MPASM 5.64        RECIBE_UART_PIC18F4620.ASM   11-17-2015  17:18:08         PAGE 18


SYMBOL TABLE
  LABEL                             VALUE 

T1CON                             00000FCD
T1OSCEN                           00000003
T1OSI                             00000001
T1OSO                             00000000
T1RUN                             00000006
T1SYNC                            00000002
T2CKPS0                           00000000
T2CKPS1                           00000001
T2CON                             00000FCA
T2OUTPS0                          00000003
T2OUTPS1                          00000004
T2OUTPS2                          00000005
T2OUTPS3                          00000006
T3CCP1                            00000003
T3CCP2                            00000006
T3CKPS0                           00000004
T3CKPS1                           00000005
T3CON                             00000FB1
T3SYNC                            00000002
TABLAT                            00000FF5
TBLPTR                            00000FF6
TBLPTRH                           00000FF7
TBLPTRL                           00000FF6
TBLPTRU                           00000FF8
TMR0                              00000FD6
TMR0H                             00000FD7
TMR0IE                            00000005
TMR0IF                            00000002
TMR0IP                            00000002
TMR0L                             00000FD6
TMR0ON                            00000007
TMR1                              00000FCE
TMR1CS                            00000001
TMR1H                             00000FCF
TMR1IE                            00000000
TMR1IF                            00000000
TMR1IP                            00000000
TMR1L                             00000FCE
TMR1ON                            00000000
TMR2                              00000FCC
TMR2IE                            00000001
TMR2IF                            00000001
TMR2IP                            00000001
TMR2ON                            00000002
TMR3                              00000FB2
TMR3CS                            00000001
TMR3H                             00000FB3
TMR3IE                            00000001
TMR3IF                            00000001
TMR3IP                            00000001
TMR3L                             00000FB2
TMR3ON                            00000000
TO                                00000003
MPASM 5.64        RECIBE_UART_PIC18F4620.ASM   11-17-2015  17:18:08         PAGE 19


SYMBOL TABLE
  LABEL                             VALUE 

TOS                               00000FFD
TOSH                              00000FFE
TOSL                              00000FFD
TOSU                              00000FFF
TRISA                             00000F92
TRISA0                            00000000
TRISA1                            00000001
TRISA2                            00000002
TRISA3                            00000003
TRISA4                            00000004
TRISA5                            00000005
TRISA6                            00000006
TRISA7                            00000007
TRISB                             00000F93
TRISB0                            00000000
TRISB1                            00000001
TRISB2                            00000002
TRISB3                            00000003
TRISB4                            00000004
TRISB5                            00000005
TRISB6                            00000006
TRISB7                            00000007
TRISC                             00000F94
TRISC0                            00000000
TRISC1                            00000001
TRISC2                            00000002
TRISC3                            00000003
TRISC4                            00000004
TRISC5                            00000005
TRISC6                            00000006
TRISC7                            00000007
TRISD                             00000F95
TRISD0                            00000000
TRISD1                            00000001
TRISD2                            00000002
TRISD3                            00000003
TRISD4                            00000004
TRISD5                            00000005
TRISD6                            00000006
TRISD7                            00000007
TRISE                             00000F96
TRISE0                            00000000
TRISE1                            00000001
TRISE2                            00000002
TRMT                              00000001
TUN0                              00000000
TUN1                              00000001
TUN2                              00000002
TUN3                              00000003
TUN4                              00000004
TX                                00000006
TX9                               00000006
TX9D                              00000000
MPASM 5.64        RECIBE_UART_PIC18F4620.ASM   11-17-2015  17:18:08         PAGE 20


SYMBOL TABLE
  LABEL                             VALUE 

TXCKP                             00000004
TXEN                              00000005
TXIE                              00000004
TXIF                              00000004
TXIP                              00000004
TXREG                             00000FAD
TXSTA                             00000FAC
UA                                00000001
VCFG0                             00000004
VCFG1                             00000005
VDIRMAG                           00000007
VPP                               00000003
W                                 00000000
WCOL                              00000007
WDTCON                            00000FD1
WR                                00000001
WREG                              00000FE8
WREN                              00000002
WRERR                             00000003
WUE                               00000001
Z                                 00000002
_BOREN_NOSLP_2L                   000000FD
_BOREN_OFF_2L                     000000F9
_BOREN_ON_2L                      000000FB
_BOREN_SBORDIS_2L                 000000FF
_BORV_0_2L                        000000E7
_BORV_1_2L                        000000EF
_BORV_2_2L                        000000F7
_BORV_3_2L                        000000FF
_CCP2MX_PORTBE_3H                 000000FE
_CCP2MX_PORTC_3H                  000000FF
_CONFIG1H                         00300001
_CONFIG2H                         00300003
_CONFIG2L                         00300002
_CONFIG3H                         00300005
_CONFIG4L                         00300006
_CONFIG5H                         00300009
_CONFIG5L                         00300008
_CONFIG6H                         0030000B
_CONFIG6L                         0030000A
_CONFIG7H                         0030000D
_CONFIG7L                         0030000C
_CP0_OFF_5L                       000000FF
_CP0_ON_5L                        000000FE
_CP1_OFF_5L                       000000FF
_CP1_ON_5L                        000000FD
_CP2_OFF_5L                       000000FF
_CP2_ON_5L                        000000FB
_CP3_OFF_5L                       000000FF
_CP3_ON_5L                        000000F7
_CPB_OFF_5H                       000000FF
_CPB_ON_5H                        000000BF
_CPD_OFF_5H                       000000FF
MPASM 5.64        RECIBE_UART_PIC18F4620.ASM   11-17-2015  17:18:08         PAGE 21


SYMBOL TABLE
  LABEL                             VALUE 

_CPD_ON_5H                        0000007F
_DEBUG_OFF_4L                     000000FF
_DEBUG_ON_4L                      0000007F
_DEVID1                           003FFFFE
_DEVID2                           003FFFFF
_EBTR0_OFF_7L                     000000FF
_EBTR0_ON_7L                      000000FE
_EBTR1_OFF_7L                     000000FF
_EBTR1_ON_7L                      000000FD
_EBTR2_OFF_7L                     000000FF
_EBTR2_ON_7L                      000000FB
_EBTR3_OFF_7L                     000000FF
_EBTR3_ON_7L                      000000F7
_EBTRB_OFF_7H                     000000FF
_EBTRB_ON_7H                      000000BF
_FCMEN_OFF_1H                     000000BF
_FCMEN_ON_1H                      000000FF
_IDLOC0                           00200000
_IDLOC1                           00200001
_IDLOC2                           00200002
_IDLOC3                           00200003
_IDLOC4                           00200004
_IDLOC5                           00200005
_IDLOC6                           00200006
_IDLOC7                           00200007
_IESO_OFF_1H                      0000007F
_IESO_ON_1H                       000000FF
_LPT1OSC_OFF_3H                   000000FB
_LPT1OSC_ON_3H                    000000FF
_LVP_OFF_4L                       000000FB
_LVP_ON_4L                        000000FF
_MCLRE_OFF_3H                     0000007F
_MCLRE_ON_3H                      000000FF
_OSC_ECIO6_1H                     000000F5
_OSC_EC_1H                        000000F4
_OSC_HSPLL_1H                     000000F6
_OSC_HS_1H                        000000F2
_OSC_INTIO67_1H                   000000F8
_OSC_INTIO7_1H                    000000F9
_OSC_LP_1H                        000000F0
_OSC_RCIO6_1H                     000000F7
_OSC_RC_1H                        000000F3
_OSC_XT_1H                        000000F1
_PBADEN_OFF_3H                    000000FD
_PBADEN_ON_3H                     000000FF
_PWRT_OFF_2L                      000000FF
_PWRT_ON_2L                       000000FE
_STVREN_OFF_4L                    000000FE
_STVREN_ON_4L                     000000FF
_WDTPS_1024_2H                    000000F5
_WDTPS_128_2H                     000000EF
_WDTPS_16384_2H                   000000FD
_WDTPS_16_2H                      000000E9
MPASM 5.64        RECIBE_UART_PIC18F4620.ASM   11-17-2015  17:18:08         PAGE 22


SYMBOL TABLE
  LABEL                             VALUE 

_WDTPS_1_2H                       000000E1
_WDTPS_2048_2H                    000000F7
_WDTPS_256_2H                     000000F1
_WDTPS_2_2H                       000000E3
_WDTPS_32768_2H                   000000FF
_WDTPS_32_2H                      000000EB
_WDTPS_4096_2H                    000000F9
_WDTPS_4_2H                       000000E5
_WDTPS_512_2H                     000000F3
_WDTPS_64_2H                      000000ED
_WDTPS_8192_2H                    000000FB
_WDTPS_8_2H                       000000E7
_WDT_OFF_2H                       000000FE
_WDT_ON_2H                        000000FF
_WRT0_OFF_6L                      000000FF
_WRT0_ON_6L                       000000FE
_WRT1_OFF_6L                      000000FF
_WRT1_ON_6L                       000000FD
_WRT2_OFF_6L                      000000FF
_WRT2_ON_6L                       000000FB
_WRT3_OFF_6L                      000000FF
_WRT3_ON_6L                       000000F7
_WRTB_OFF_6H                      000000FF
_WRTB_ON_6H                       000000BF
_WRTC_OFF_6H                      000000FF
_WRTC_ON_6H                       000000DF
_WRTD_OFF_6H                      000000FF
_WRTD_ON_6H                       0000007F
_XINST_OFF_4L                     000000BF
_XINST_ON_4L                      000000FF
__18F4620                         00000001
bin_to_bcd                        00000066
centenas                          00000020
decenas                           00000021
delay1                            00000023
delay2                            00000024
fin_bcd                           0000008C
inc_centenas                      00000084
inc_decenas                       00000076
resta10                           0000006C
unidades                          00000022

Errors   :     0
Warnings :     0 reported,     0 suppressed
Messages :     0 reported,     0 suppressed

